libkdevpythoncompletion.so:_ZN6Python15StringFormatterC1ERK7QString
libkdevpythoncompletion.so:_ZN6Python15StringFormatterC2ERK7QString
libkdevpythoncompletion.so:_ZN6Python16ExpressionParser13popExpressionEPNS0_6StatusE
libkdevpythoncompletion.so:_ZN6Python16ExpressionParser14getScannedCodeEv
libkdevpythoncompletion.so:_ZN6Python16ExpressionParser15skipUntilStatusENS0_6StatusEPbPi
libkdevpythoncompletion.so:_ZN6Python16ExpressionParser16getRemainingCodeEv
libkdevpythoncompletion.so:_ZN6Python16ExpressionParser18trailingWhitespaceEv
libkdevpythoncompletion.so:_ZN6Python16ExpressionParser5resetEv
libkdevpythoncompletion.so:_ZN6Python16ExpressionParser6popAllEv
libkdevpythoncompletion.so:_ZN6Python16ExpressionParserC1E7QString
libkdevpythoncompletion.so:_ZN6Python16ExpressionParserC2E7QString
libkdevpythoncompletion.so:_ZN6Python21camelCaseToUnderscoreERK7QString
libkdevpythoncompletion.so:_ZN6Python22identifierMatchQualityERK7QStringS2_
libkdevpythoncompletion.so:_ZN6Python25PythonCodeCompletionModel11qt_metacallEN11QMetaObject4CallEiPPv
libkdevpythoncompletion.so:_ZN6Python25PythonCodeCompletionModel11qt_metacastEPKc
libkdevpythoncompletion.so:_ZN6Python25PythonCodeCompletionModel12filterStringEPN11KTextEditor4ViewERKNS1_5RangeERKNS1_6CursorE
libkdevpythoncompletion.so:_ZN6Python25PythonCodeCompletionModel15completionRangeEPN11KTextEditor4ViewERKNS1_6CursorE
libkdevpythoncompletion.so:_ZN6Python25PythonCodeCompletionModel21shouldAbortCompletionEPN11KTextEditor4ViewERKNS1_5RangeERK7QString
libkdevpythoncompletion.so:_ZN6Python25PythonCodeCompletionModel21shouldStartCompletionEPN11KTextEditor4ViewERK7QStringbRKNS1_6CursorE
libkdevpythoncompletion.so:_ZN6Python25PythonCodeCompletionModel22createCompletionWorkerEv
libkdevpythoncompletion.so:_ZN6Python25PythonCodeCompletionModelC1EP7QObject
libkdevpythoncompletion.so:_ZN6Python25PythonCodeCompletionModelC2EP7QObject
libkdevpythoncompletion.so:_ZN6Python25PythonCodeCompletionModelD0Ev
libkdevpythoncompletion.so:_ZN6Python25PythonCodeCompletionModelD1Ev
libkdevpythoncompletion.so:_ZN6Python25PythonCodeCompletionModelD2Ev
libkdevpythoncompletion.so:_ZN6Python26PythonCodeCompletionWorker11qt_metacallEN11QMetaObject4CallEiPPv
libkdevpythoncompletion.so:_ZN6Python26PythonCodeCompletionWorker11qt_metacastEPKc
libkdevpythoncompletion.so:_ZN6Python26PythonCodeCompletionWorkerC1EPNS_25PythonCodeCompletionModelERK4QUrl
libkdevpythoncompletion.so:_ZN6Python26PythonCodeCompletionWorkerC2EPNS_25PythonCodeCompletionModelERK4QUrl
libkdevpythoncompletion.so:_ZN6Python27PythonCodeCompletionContext10raiseItemsEv
libkdevpythoncompletion.so:_ZN6Python27PythonCodeCompletionContext11defineItemsEv
libkdevpythoncompletion.so:_ZN6Python27PythonCodeCompletionContext12itemTypeHintEv
libkdevpythoncompletion.so:_ZN6Python27PythonCodeCompletionContext12keywordItemsEv
libkdevpythoncompletion.so:_ZN6Python27PythonCodeCompletionContext12shebangItemsEv
libkdevpythoncompletion.so:_ZN6Python27PythonCodeCompletionContext14generatorItemsEv
libkdevpythoncompletion.so:_ZN6Python27PythonCodeCompletionContext15completionItemsERbb
libkdevpythoncompletion.so:_ZN6Python27PythonCodeCompletionContext15importFileItemsEv
libkdevpythoncompletion.so:_ZN6Python27PythonCodeCompletionContext16findIncludeItemsE5QListINS_19IncludeSearchTargetEE
libkdevpythoncompletion.so:_ZN6Python27PythonCodeCompletionContext16findIncludeItemsENS_19IncludeSearchTargetE
libkdevpythoncompletion.so:_ZN6Python27PythonCodeCompletionContext16inheritanceItemsEv
libkdevpythoncompletion.so:_ZN6Python27PythonCodeCompletionContext17functionCallItemsEv
libkdevpythoncompletion.so:_ZN6Python27PythonCodeCompletionContext17memberAccessItemsEv
libkdevpythoncompletion.so:_ZN6Python27PythonCodeCompletionContext17ungroupedElementsEv
libkdevpythoncompletion.so:_ZN6Python27PythonCodeCompletionContext18eventuallyAddGroupE7QStringi5QListI28QExplicitlySharedDataPointerIN8KDevelop18CompletionTreeItemEEE
libkdevpythoncompletion.so:_ZN6Python27PythonCodeCompletionContext20classMemberInitItemsEv
libkdevpythoncompletion.so:_ZN6Python27PythonCodeCompletionContext21completionContextTypeEv
libkdevpythoncompletion.so:_ZN6Python27PythonCodeCompletionContext21stringFormattingItemsEv
libkdevpythoncompletion.so:_ZN6Python27PythonCodeCompletionContext22getMissingIncludeItemsE7QString
libkdevpythoncompletion.so:_ZN6Python27PythonCodeCompletionContext24includeItemsForSubmoduleE7QString
libkdevpythoncompletion.so:_ZN6Python27PythonCodeCompletionContext25declarationListToItemListE5QListIPN8KDevelop11DeclarationEE
libkdevpythoncompletion.so:_ZN6Python27PythonCodeCompletionContext25declarationListToItemListERK7QVectorI5QPairIPN8KDevelop11DeclarationEiEEi
libkdevpythoncompletion.so:_ZN6Python27PythonCodeCompletionContext25getCompletionItemsForTypeEN8KDevelop7TypePtrINS1_12AbstractTypeEEE
libkdevpythoncompletion.so:_ZN6Python27PythonCodeCompletionContext27summonParentForEventualCallENS_9TokenListERK7QString
libkdevpythoncompletion.so:_ZN6Python27PythonCodeCompletionContext28getCompletionItemsForOneTypeEN8KDevelop7TypePtrINS1_12AbstractTypeEEE
libkdevpythoncompletion.so:_ZN6Python27PythonCodeCompletionContext29internalContextForDeclarationEPN8KDevelop12TopDUContextE11QStringList
libkdevpythoncompletion.so:_ZN6Python27PythonCodeCompletionContextC1EN8KDevelop14DUChainPointerINS1_9DUContextEEERK7QStringS5_iiPNS1_21CodeCompletionContextE
libkdevpythoncompletion.so:_ZN6Python27PythonCodeCompletionContextC1EN8KDevelop14DUChainPointerINS1_9DUContextEEERK7QStringS7_RKNS1_16CursorInRevisionEiPKNS_26PythonCodeCompletionWorkerE
libkdevpythoncompletion.so:_ZN6Python27PythonCodeCompletionContextC2EN8KDevelop14DUChainPointerINS1_9DUContextEEERK7QStringS5_iiPNS1_21CodeCompletionContextE
libkdevpythoncompletion.so:_ZN6Python27PythonCodeCompletionContextC2EN8KDevelop14DUChainPointerINS1_9DUContextEEERK7QStringS7_RKNS1_16CursorInRevisionEiPKNS_26PythonCodeCompletionWorkerE
libkdevpythoncompletion.so:_ZNK6Python15StringFormatter16nextIdentifierIdEv
libkdevpythoncompletion.so:_ZNK6Python15StringFormatter19getVariablePositionEi
libkdevpythoncompletion.so:_ZNK6Python15StringFormatter22getReplacementVariableEi
libkdevpythoncompletion.so:_ZNK6Python15StringFormatter27isInsideReplacementVariableEi
libkdevpythoncompletion.so:_ZNK6Python25PythonCodeCompletionModel10metaObjectEv
libkdevpythoncompletion.so:_ZNK6Python26PythonCodeCompletionWorker10metaObjectEv
libkdevpythoncompletion.so:_ZNK6Python26PythonCodeCompletionWorker18updateContextRangeERN11KTextEditor5RangeEPNS1_4ViewERKN8KDevelop14DUChainPointerINS6_9DUContextEEE
libkdevpythoncompletion.so:_ZNK6Python26PythonCodeCompletionWorker23createCompletionContextERKN8KDevelop14DUChainPointerINS1_9DUContextEEERK7QStringS9_RKNS1_16CursorInRevisionE
libkdevpythoncompletion.so:_ZThn24_N6Python25PythonCodeCompletionModel12filterStringEPN11KTextEditor4ViewERKNS1_5RangeERKNS1_6CursorE
libkdevpythoncompletion.so:_ZThn24_N6Python25PythonCodeCompletionModel15completionRangeEPN11KTextEditor4ViewERKNS1_6CursorE
libkdevpythoncompletion.so:_ZThn24_N6Python25PythonCodeCompletionModel21shouldAbortCompletionEPN11KTextEditor4ViewERKNS1_5RangeERK7QString
libkdevpythoncompletion.so:_ZThn24_N6Python25PythonCodeCompletionModel21shouldStartCompletionEPN11KTextEditor4ViewERK7QStringbRKNS1_6CursorE
libkdevpythoncompletion.so:_ZThn24_N6Python25PythonCodeCompletionModelD0Ev
libkdevpythoncompletion.so:_ZThn24_N6Python25PythonCodeCompletionModelD1Ev
libkdevpythonduchain.so:_ZN6Python10HintedType12setCreatedByEPN8KDevelop12TopDUContextERKNS1_20ModificationRevisionE
libkdevpythonduchain.so:_ZN6Python10HintedType7isValidEv
libkdevpythonduchain.so:_ZN6Python10HintedTypeC1ERKS0_
libkdevpythonduchain.so:_ZN6Python10HintedTypeC1ERN8KDevelop17TypeAliasTypeDataE
libkdevpythonduchain.so:_ZN6Python10HintedTypeC1Ev
libkdevpythonduchain.so:_ZN6Python10HintedTypeC2ERKS0_
libkdevpythonduchain.so:_ZN6Python10HintedTypeC2ERN8KDevelop17TypeAliasTypeDataE
libkdevpythonduchain.so:_ZN6Python10HintedTypeC2Ev
libkdevpythonduchain.so:_ZN6Python10UnsureType7addTypeERKN8KDevelop11IndexedTypeE
libkdevpythonduchain.so:_ZN6Python10UnsureTypeC1ERKS0_
libkdevpythonduchain.so:_ZN6Python10UnsureTypeC1ERN8KDevelop14UnsureTypeDataE
libkdevpythonduchain.so:_ZN6Python10UnsureTypeC1Ev
libkdevpythonduchain.so:_ZN6Python10UnsureTypeC2ERKS0_
libkdevpythonduchain.so:_ZN6Python10UnsureTypeC2ERN8KDevelop14UnsureTypeDataE
libkdevpythonduchain.so:_ZN6Python10UnsureTypeC2Ev
libkdevpythonduchain.so:_ZN6Python10UseBuilder14visitAttributeEPNS_12AttributeAstE
libkdevpythonduchain.so:_ZN6Python10UseBuilder14visitSubscriptEPNS_12SubscriptAstE
libkdevpythonduchain.so:_ZN6Python10UseBuilder15useHiddenMethodEPNS_13ExpressionAstEPN8KDevelop11DeclarationE
libkdevpythonduchain.so:_ZN6Python10UseBuilder18contextAtOrCurrentERKN8KDevelop16CursorInRevisionE
libkdevpythonduchain.so:_ZN6Python10UseBuilder9visitCallEPNS_7CallAstE
libkdevpythonduchain.so:_ZN6Python10UseBuilder9visitNameEPNS_7NameAstE
libkdevpythonduchain.so:_ZN6Python10UseBuilderC1EPNS_22PythonEditorIntegratorE7QVectorIN8KDevelop13IndexedStringEE
libkdevpythonduchain.so:_ZN6Python10UseBuilderC2EPNS_22PythonEditorIntegratorE7QVectorIN8KDevelop13IndexedStringEE
libkdevpythonduchain.so:_ZN6Python14ContextBuilder10newContextERKN8KDevelop15RangeInRevisionE
libkdevpythonduchain.so:_ZN6Python14ContextBuilder11visitLambdaEPNS_9LambdaAstE
libkdevpythonduchain.so:_ZN6Python14ContextBuilder12rangeForNodeEPNS_10IdentifierEb
libkdevpythonduchain.so:_ZN6Python14ContextBuilder12rangeForNodeEPNS_3AstEb
libkdevpythonduchain.so:_ZN6Python14ContextBuilder13newTopContextERKN8KDevelop15RangeInRevisionEPNS1_22ParsingEnvironmentFileE
libkdevpythonduchain.so:_ZN6Python14ContextBuilder13startVisitingEPNS_3AstE
libkdevpythonduchain.so:_ZN6Python14ContextBuilder14findModulePathERK7QStringRK4QUrl
libkdevpythonduchain.so:_ZN6Python14ContextBuilder15contextFromNodeEPNS_3AstE
libkdevpythonduchain.so:_ZN6Python14ContextBuilder15editorFindRangeEPNS_3AstES2_
libkdevpythonduchain.so:_ZN6Python14ContextBuilder16setContextOnNodeEPNS_3AstEPN8KDevelop9DUContextE
libkdevpythonduchain.so:_ZN6Python14ContextBuilder17identifierForNodeEPNS_10IdentifierE
libkdevpythonduchain.so:_ZN6Python14ContextBuilder17visitFunctionBodyEPNS_21FunctionDefinitionAstE
libkdevpythonduchain.so:_ZN6Python14ContextBuilder18comprehensionRangeEPNS_3AstE
libkdevpythonduchain.so:_ZN6Python14ContextBuilder18contextAlreadyOpenEN8KDevelop14DUChainPointerINS1_9DUContextEEE
libkdevpythonduchain.so:_ZN6Python14ContextBuilder19addImportedContextsEv
libkdevpythonduchain.so:_ZN6Python14ContextBuilder19addUnresolvedImportERKN8KDevelop13IndexedStringE
libkdevpythonduchain.so:_ZN6Python14ContextBuilder20visitClassDefinitionEPNS_18ClassDefinitionAstE
libkdevpythonduchain.so:_ZN6Python14ContextBuilder22editorFindPositionSafeEPNS_3AstE
libkdevpythonduchain.so:_ZN6Python14ContextBuilder22visitFunctionArgumentsEPNS_21FunctionDefinitionAstE
libkdevpythonduchain.so:_ZN6Python14ContextBuilder22visitListComprehensionEPNS_20ListComprehensionAstE
libkdevpythonduchain.so:_ZN6Python14ContextBuilder23visitFunctionDefinitionEPNS_21FunctionDefinitionAstE
libkdevpythonduchain.so:_ZN6Python14ContextBuilder24rangeForArgumentsContextEPNS_21FunctionDefinitionAstE
libkdevpythonduchain.so:_ZN6Python14ContextBuilder24visitComprehensionCommonEPNS_3AstE
libkdevpythonduchain.so:_ZN6Python14ContextBuilder24visitGeneratorExpressionEPNS_22GeneratorExpressionAstE
libkdevpythonduchain.so:_ZN6Python14ContextBuilder25closeAlreadyOpenedContextEN8KDevelop14DUChainPointerINS1_9DUContextEEE
libkdevpythonduchain.so:_ZN6Python14ContextBuilder26setCurrentlyParsedDocumentERKN8KDevelop13IndexedStringE
libkdevpythonduchain.so:_ZN6Python14ContextBuilder28activateAlreadyOpenedContextEN8KDevelop14DUChainPointerINS1_9DUContextEEE
libkdevpythonduchain.so:_ZN6Python14ContextBuilder28visitDictionaryComprehensionEPNS_26DictionaryComprehensionAstE
libkdevpythonduchain.so:_ZN6Python14ContextBuilder29openContextForClassDefinitionEPNS_18ClassDefinitionAstE
libkdevpythonduchain.so:_ZN6Python14ContextBuilder29setFutureModificationRevisionERKN8KDevelop20ModificationRevisionE
libkdevpythonduchain.so:_ZN6Python14ContextBuilder5buildERKN8KDevelop13IndexedStringEPNS_3AstERKNS1_22ReferencedTopDUContextE
libkdevpythonduchain.so:_ZN6Python14ContextBuilder8startPosEPNS_3AstE
libkdevpythonduchain.so:_ZN6Python14ContextBuilder9setEditorEPNS_22PythonEditorIntegratorE
libkdevpythonduchain.so:_ZN6Python14ContextBuilder9visitCodeEPNS_7CodeAstE
libkdevpythonduchain.so:_ZN6Python16IndexedContainer11replaceTypeEiN8KDevelop7TypePtrINS1_12AbstractTypeEEE
libkdevpythonduchain.so:_ZN6Python16IndexedContainer8addEntryEN8KDevelop7TypePtrINS1_12AbstractTypeEEE
libkdevpythonduchain.so:_ZN6Python16IndexedContainerC1ERKS0_
libkdevpythonduchain.so:_ZN6Python16IndexedContainerC1ERNS_20IndexedContainerDataE
libkdevpythonduchain.so:_ZN6Python16IndexedContainerC1Ev
libkdevpythonduchain.so:_ZN6Python16IndexedContainerC2ERKS0_
libkdevpythonduchain.so:_ZN6Python16IndexedContainerC2ERNS_20IndexedContainerDataE
libkdevpythonduchain.so:_ZN6Python16IndexedContainerC2Ev
libkdevpythonduchain.so:_ZN6Python16NavigationWidget11qt_metacallEN11QMetaObject4CallEiPPv
libkdevpythonduchain.so:_ZN6Python16NavigationWidget11qt_metacastEPKc
libkdevpythonduchain.so:_ZN6Python16NavigationWidgetC1EN8KDevelop14DUChainPointerINS1_11DeclarationEEENS2_INS1_12TopDUContextEEERK7QStringS9_6QFlagsINS1_24AbstractNavigationWidget11DisplayHintEE
libkdevpythonduchain.so:_ZN6Python16NavigationWidgetC1ERKN8KDevelop11IncludeItemENS1_14DUChainPointerINS1_12TopDUContextEEERK7QStringSA_6QFlagsINS1_24AbstractNavigationWidget11DisplayHintEE
libkdevpythonduchain.so:_ZN6Python16NavigationWidgetC2EN8KDevelop14DUChainPointerINS1_11DeclarationEEENS2_INS1_12TopDUContextEEERK7QStringS9_6QFlagsINS1_24AbstractNavigationWidget11DisplayHintEE
libkdevpythonduchain.so:_ZN6Python16NavigationWidgetC2ERKN8KDevelop11IncludeItemENS1_14DUChainPointerINS1_12TopDUContextEEERK7QStringSA_6QFlagsINS1_24AbstractNavigationWidget11DisplayHintEE
libkdevpythonduchain.so:_ZN6Python17ExpressionVisitor10visitBytesEPNS_8BytesAstE
libkdevpythonduchain.so:_ZN6Python17ExpressionVisitor10visitTupleEPNS_8TupleAstE
libkdevpythonduchain.so:_ZN6Python17ExpressionVisitor11visitLambdaEPNS_9LambdaAstE
libkdevpythonduchain.so:_ZN6Python17ExpressionVisitor11visitNumberEPNS_9NumberAstE
libkdevpythonduchain.so:_ZN6Python17ExpressionVisitor11visitStringEPNS_9StringAstE
libkdevpythonduchain.so:_ZN6Python17ExpressionVisitor12visitCompareEPNS_10CompareAstE
libkdevpythonduchain.so:_ZN6Python17ExpressionVisitor14addUnknownNameERK7QString
libkdevpythonduchain.so:_ZN6Python17ExpressionVisitor14visitAttributeEPNS_12AttributeAstE
libkdevpythonduchain.so:_ZN6Python17ExpressionVisitor14visitSubscriptEPNS_12SubscriptAstE
libkdevpythonduchain.so:_ZN6Python17ExpressionVisitor17visitIfExpressionEPNS_15IfExpressionAstE
libkdevpythonduchain.so:_ZN6Python17ExpressionVisitor17visitJoinedStringEPNS_15JoinedStringAstE
libkdevpythonduchain.so:_ZN6Python17ExpressionVisitor17visitNameConstantEPNS_15NameConstantAstE
libkdevpythonduchain.so:_ZN6Python17ExpressionVisitor18fromBinaryOperatorEN8KDevelop7TypePtrINS1_12AbstractTypeEEES4_RK7QString
libkdevpythonduchain.so:_ZN6Python17ExpressionVisitor19encounterPreprocessEN8KDevelop7TypePtrINS1_12AbstractTypeEEE
libkdevpythonduchain.so:_ZN6Python17ExpressionVisitor19visitFormattedValueEPNS_17FormattedValueAstE
libkdevpythonduchain.so:_ZN6Python17ExpressionVisitor19visitUnaryOperationEPNS_17UnaryOperationAstE
libkdevpythonduchain.so:_ZN6Python17ExpressionVisitor20visitBinaryOperationEPNS_18BinaryOperationAstE
libkdevpythonduchain.so:_ZN6Python17ExpressionVisitor21docstringTypeOverrideEPNS_7CallAstEN8KDevelop7TypePtrINS3_12AbstractTypeEEERK7QString
libkdevpythonduchain.so:_ZN6Python17ExpressionVisitor21visitBooleanOperationEPNS_19BooleanOperationAstE
libkdevpythonduchain.so:_ZN6Python17ExpressionVisitor21visitSetComprehensionEPNS_19SetComprehensionAstE
libkdevpythonduchain.so:_ZN6Python17ExpressionVisitor22visitListComprehensionEPNS_20ListComprehensionAstE
libkdevpythonduchain.so:_ZN6Python17ExpressionVisitor28visitDictionaryComprehensionEPNS_26DictionaryComprehensionAstE
libkdevpythonduchain.so:_ZN6Python17ExpressionVisitor8visitSetEPNS_6SetAstE
libkdevpythonduchain.so:_ZN6Python17ExpressionVisitor9encounterEN8KDevelop7TypePtrINS1_12AbstractTypeEEENS1_14DUChainPointerINS1_11DeclarationEEEb
libkdevpythonduchain.so:_ZN6Python17ExpressionVisitor9visitCallEPNS_7CallAstE
libkdevpythonduchain.so:_ZN6Python17ExpressionVisitor9visitDictEPNS_7DictAstE
libkdevpythonduchain.so:_ZN6Python17ExpressionVisitor9visitListEPNS_7ListAstE
libkdevpythonduchain.so:_ZN6Python17ExpressionVisitor9visitNameEPNS_7NameAstE
libkdevpythonduchain.so:_ZN6Python17ExpressionVisitorC1EPKN8KDevelop9DUContextE
libkdevpythonduchain.so:_ZN6Python17ExpressionVisitorC1EPS0_PKN8KDevelop9DUContextE
libkdevpythonduchain.so:_ZN6Python17ExpressionVisitorC2EPKN8KDevelop9DUContextE
libkdevpythonduchain.so:_ZN6Python17ExpressionVisitorC2EPS0_PKN8KDevelop9DUContextE
libkdevpythonduchain.so:_ZN6Python18DeclarationBuilder10visitYieldEPNS_8YieldAstE
libkdevpythonduchain.so:_ZN6Python18DeclarationBuilder11kindForTypeEN8KDevelop7TypePtrINS1_12AbstractTypeEEEb
libkdevpythonduchain.so:_ZN6Python18DeclarationBuilder11visitGlobalEPNS_9GlobalAstE
libkdevpythonduchain.so:_ZN6Python18DeclarationBuilder11visitImportEPNS_9ImportAstE
libkdevpythonduchain.so:_ZN6Python18DeclarationBuilder11visitLambdaEPNS_9LambdaAstE
libkdevpythonduchain.so:_ZN6Python18DeclarationBuilder11visitReturnEPNS_9ReturnAstE
libkdevpythonduchain.so:_ZN6Python18DeclarationBuilder11visitStringEPNS_9StringAstE
libkdevpythonduchain.so:_ZN6Python18DeclarationBuilder12assignToNameEPNS_7NameAstERKNS0_10SourceTypeE
libkdevpythonduchain.so:_ZN6Python18DeclarationBuilder13assignToTupleEPNS_8TupleAstERKNS0_10SourceTypeE
libkdevpythonduchain.so:_ZN6Python18DeclarationBuilder13tryUnpackTypeEN8KDevelop7TypePtrINS1_12AbstractTypeEEER7QVectorIS4_Ei
libkdevpythonduchain.so:_ZN6Python18DeclarationBuilder13visitWithItemEPNS_11WithItemAstE
libkdevpythonduchain.so:_ZN6Python18DeclarationBuilder14setPrebuildingEb
libkdevpythonduchain.so:_ZN6Python18DeclarationBuilder14visitArgumentsEPNS_12ArgumentsAstE
libkdevpythonduchain.so:_ZN6Python18DeclarationBuilder14visitAssertionEPNS_12AssertionAstE
libkdevpythonduchain.so:_ZN6Python18DeclarationBuilder15assignToUnknownEPNS_13ExpressionAstEN8KDevelop7TypePtrINS3_12AbstractTypeEEE
libkdevpythonduchain.so:_ZN6Python18DeclarationBuilder15assignToUnknownEPNS_13ExpressionAstERKNS0_10SourceTypeE
libkdevpythonduchain.so:_ZN6Python18DeclarationBuilder15visitAssignmentEPNS_13AssignmentAstE
libkdevpythonduchain.so:_ZN6Python18DeclarationBuilder15visitImportFromEPNS_13ImportFromAstE
libkdevpythonduchain.so:_ZN6Python18DeclarationBuilder16closeDeclarationEv
libkdevpythonduchain.so:_ZN6Python18DeclarationBuilder17assignToAttributeEPNS_12AttributeAstERKNS0_10SourceTypeE
libkdevpythonduchain.so:_ZN6Python18DeclarationBuilder17assignToSubscriptEPNS_12SubscriptAstERKNS0_10SourceTypeE
libkdevpythonduchain.so:_ZN6Python18DeclarationBuilder18adjustForTypecheckEPNS_13ExpressionAstEb
libkdevpythonduchain.so:_ZN6Python18DeclarationBuilder18visitComprehensionEPNS_16ComprehensionAstE
libkdevpythonduchain.so:_ZN6Python18DeclarationBuilder19applyDocstringHintsEPNS_7CallAstEN8KDevelop14DUChainPointerINS_19FunctionDeclarationEEE
libkdevpythonduchain.so:_ZN6Python18DeclarationBuilder19scheduleForDeletionEPN8KDevelop11DUChainBaseEb
libkdevpythonduchain.so:_ZN6Python18DeclarationBuilder20addArgumentTypeHintsEPNS_7CallAstEN8KDevelop14DUChainPointerINS3_11DeclarationEEE
libkdevpythonduchain.so:_ZN6Python18DeclarationBuilder20visitClassDefinitionEPNS_18ClassDefinitionAstE
libkdevpythonduchain.so:_ZN6Python18DeclarationBuilder21createDeclarationTreeERK11QStringListPNS_10IdentifierERKN8KDevelop22ReferencedTopDUContextEPNS6_11DeclarationERKNS6_15RangeInRevisionE
libkdevpythonduchain.so:_ZN6Python18DeclarationBuilder21visitExceptionHandlerEPNS_19ExceptionHandlerAstE
libkdevpythonduchain.so:_ZN6Python18DeclarationBuilder23visitFunctionDefinitionEPNS_21FunctionDefinitionAstE
libkdevpythonduchain.so:_ZN6Python18DeclarationBuilder25visitAnnotationAssignmentEPNS_23AnnotationAssignmentAstE
libkdevpythonduchain.so:_ZN6Python18DeclarationBuilder27existingDeclarationsForNodeEPNS_10IdentifierE
libkdevpythonduchain.so:_ZN6Python18DeclarationBuilder29adjustExpressionsForTypecheckEPNS_13ExpressionAstES2_b
libkdevpythonduchain.so:_ZN6Python18DeclarationBuilder29createModuleImportDeclarationE7QStringS1_PNS_10IdentifierER28QExplicitlySharedDataPointerIN8KDevelop7ProblemEEPNS_3AstE
libkdevpythonduchain.so:_ZN6Python18DeclarationBuilder5buildERKN8KDevelop13IndexedStringEPNS_3AstERKNS1_22ReferencedTopDUContextE
libkdevpythonduchain.so:_ZN6Python18DeclarationBuilder7visitIfEPNS_5IfAstE
libkdevpythonduchain.so:_ZN6Python18DeclarationBuilder8visitForEPNS_6ForAstE
libkdevpythonduchain.so:_ZN6Python18DeclarationBuilder9visitCallEPNS_7CallAstE
libkdevpythonduchain.so:_ZN6Python18DeclarationBuilder9visitCodeEPNS_7CodeAstE
libkdevpythonduchain.so:_ZN6Python18DeclarationBuilder9visitNodeEPNS_3AstE
libkdevpythonduchain.so:_ZN6Python18DeclarationBuilderC1EPNS_22PythonEditorIntegratorEi
libkdevpythonduchain.so:_ZN6Python18DeclarationBuilderC2EPNS_22PythonEditorIntegratorEi
libkdevpythonduchain.so:_ZN6Python18DeclarationBuilderD0Ev
libkdevpythonduchain.so:_ZN6Python18DeclarationBuilderD1Ev
libkdevpythonduchain.so:_ZN6Python18DeclarationBuilderD2Ev
libkdevpythonduchain.so:_ZN6Python19FunctionDeclarationC1ERKN8KDevelop15RangeInRevisionEPNS1_9DUContextE
libkdevpythonduchain.so:_ZN6Python19FunctionDeclarationC1ERKS0_
libkdevpythonduchain.so:_ZN6Python19FunctionDeclarationC1ERNS_23FunctionDeclarationDataE
libkdevpythonduchain.so:_ZN6Python19FunctionDeclarationC1ERNS_23FunctionDeclarationDataERKN8KDevelop15RangeInRevisionEPNS3_9DUContextE
libkdevpythonduchain.so:_ZN6Python19FunctionDeclarationC2ERKN8KDevelop15RangeInRevisionEPNS1_9DUContextE
libkdevpythonduchain.so:_ZN6Python19FunctionDeclarationC2ERKS0_
libkdevpythonduchain.so:_ZN6Python19FunctionDeclarationC2ERNS_23FunctionDeclarationDataE
libkdevpythonduchain.so:_ZN6Python19FunctionDeclarationC2ERNS_23FunctionDeclarationDataERKN8KDevelop15RangeInRevisionEPNS3_9DUContextE
libkdevpythonduchain.so:_ZN6Python19FunctionDeclarationD0Ev
libkdevpythonduchain.so:_ZN6Python19FunctionDeclarationD1Ev
libkdevpythonduchain.so:_ZN6Python19FunctionDeclarationD2Ev
libkdevpythonduchain.so:_ZN6Python22PythonEditorIntegratorC1EPNS_12ParseSessionE
libkdevpythonduchain.so:_ZN6Python22PythonEditorIntegratorC2EPNS_12ParseSessionE
libkdevpythonduchain.so:_ZN6Python22PythonEditorIntegratorD1Ev
libkdevpythonduchain.so:_ZN6Python22PythonEditorIntegratorD2Ev
libkdevpythonduchain.so:_ZN6Python41temporaryHashIndexedContainerDatam_valuesEv
libkdevpythonduchain.so:_ZN6Python6Helper10mergeTypesEN8KDevelop7TypePtrINS1_12AbstractTypeEEES4_
libkdevpythonduchain.so:_ZN6Python6Helper11getDataDirsEv
libkdevpythonduchain.so:_ZN6Python6Helper12isUsefulTypeEN8KDevelop7TypePtrINS1_12AbstractTypeEEE
libkdevpythonduchain.so:_ZN6Python6Helper14getSearchPathsERK4QUrl
libkdevpythonduchain.so:_ZN6Python6Helper15accessAttributeEN8KDevelop7TypePtrINS1_12AbstractTypeEEERKNS1_17IndexedIdentifierEPKNS1_12TopDUContextE
libkdevpythonduchain.so:_ZN6Python6Helper16extractTypeHintsEN8KDevelop7TypePtrINS1_12AbstractTypeEEE
libkdevpythonduchain.so:_ZN6Python6Helper16resolveAliasTypeEN8KDevelop7TypePtrINS1_12AbstractTypeEEE
libkdevpythonduchain.so:_ZN6Python6Helper17contentOfIterableEN8KDevelop7TypePtrINS1_12AbstractTypeEEEPKNS1_12TopDUContextE
libkdevpythonduchain.so:_ZN6Python6Helper17functionForCalledEPN8KDevelop11DeclarationEb
libkdevpythonduchain.so:_ZN6Python6Helper17getCorrectionFileERK4QUrl
libkdevpythonduchain.so:_ZN6Python6Helper18declarationForNameEPKNS_7NameAstEN8KDevelop16CursorInRevisionENS4_14DUChainPointerIKNS4_9DUContextEEE
libkdevpythonduchain.so:_ZN6Python6Helper18declarationForNameERK7QStringRKN8KDevelop16CursorInRevisionENS4_14DUChainPointerIKNS4_9DUContextEEE
libkdevpythonduchain.so:_ZN6Python6Helper18scheduleDependencyERKN8KDevelop13IndexedStringEi
libkdevpythonduchain.so:_ZN6Python6Helper20getDocumentationFileEv
libkdevpythonduchain.so:_ZN6Python6Helper22declarationUnderCursorEb
libkdevpythonduchain.so:_ZN6Python6Helper22getLocalCorrectionFileERK4QUrl
libkdevpythonduchain.so:_ZN6Python6Helper23getPythonExecutablePathEPN8KDevelop8IProjectE
libkdevpythonduchain.so:_ZN6Python6Helper23resolveAliasDeclarationEPN8KDevelop11DeclarationE
libkdevpythonduchain.so:_ZN6Python6Helper24internalContextsForClassEN8KDevelop7TypePtrINS1_13StructureTypeEEEPKNS1_12TopDUContextENS0_18ContextSearchFlagsEi
libkdevpythonduchain.so:_ZN6Python6Helper27getDocumentationFileContextEv
libkdevpythonduchain.so:_ZN6Python8NoneTypeC1ERKS0_
libkdevpythonduchain.so:_ZN6Python8NoneTypeC1ERN8KDevelop16IntegralTypeDataE
libkdevpythonduchain.so:_ZN6Python8NoneTypeC1Ev
libkdevpythonduchain.so:_ZN6Python8NoneTypeC2ERKS0_
libkdevpythonduchain.so:_ZN6Python8NoneTypeC2ERN8KDevelop16IntegralTypeDataE
libkdevpythonduchain.so:_ZN6Python8NoneTypeC2Ev
libkdevpythonduchain.so:_ZN6Python9DumpChain4dumpEPN8KDevelop9DUContextEb
libkdevpythonduchain.so:_ZN6Python9DumpChainC1Ev
libkdevpythonduchain.so:_ZN6Python9DumpChainC2Ev
libkdevpythonduchain.so:_ZN6Python9DumpChainD0Ev
libkdevpythonduchain.so:_ZN6Python9DumpChainD1Ev
libkdevpythonduchain.so:_ZN6Python9DumpChainD2Ev
libkdevpythonduchain.so:_ZNK6Python10HintedType4hashEv
libkdevpythonduchain.so:_ZNK6Python10HintedType5cloneEv
libkdevpythonduchain.so:_ZNK6Python10HintedType6equalsEPKN8KDevelop12AbstractTypeE
libkdevpythonduchain.so:_ZNK6Python10HintedType9createdByEv
libkdevpythonduchain.so:_ZNK6Python10UnsureType14typesRecursiveEv
libkdevpythonduchain.so:_ZNK6Python10UnsureType4hashEv
libkdevpythonduchain.so:_ZNK6Python10UnsureType5cloneEv
libkdevpythonduchain.so:_ZNK6Python10UnsureType6equalsEPKN8KDevelop12AbstractTypeE
libkdevpythonduchain.so:_ZNK6Python10UnsureType8toStringEv
libkdevpythonduchain.so:_ZNK6Python10UnsureType9whichTypeEv
libkdevpythonduchain.so:_ZNK6Python10UseBuilder12parseSessionEv
libkdevpythonduchain.so:_ZNK6Python14ContextBuilder17unresolvedImportsEv
libkdevpythonduchain.so:_ZNK6Python14ContextBuilder23currentlyParsedDocumentEv
libkdevpythonduchain.so:_ZNK6Python14ContextBuilder6editorEv
libkdevpythonduchain.so:_ZNK6Python16IndexedContainer10typesCountEv
libkdevpythonduchain.so:_ZNK6Python16IndexedContainer12asUnsureTypeEv
libkdevpythonduchain.so:_ZNK6Python16IndexedContainer17containerToStringEv
libkdevpythonduchain.so:_ZNK6Python16IndexedContainer4hashEv
libkdevpythonduchain.so:_ZNK6Python16IndexedContainer5cloneEv
libkdevpythonduchain.so:_ZNK6Python16IndexedContainer6equalsEPKN8KDevelop12AbstractTypeE
libkdevpythonduchain.so:_ZNK6Python16IndexedContainer6typeAtEi
libkdevpythonduchain.so:_ZNK6Python16IndexedContainer8toStringEv
libkdevpythonduchain.so:_ZNK6Python16NavigationWidget10metaObjectEv
libkdevpythonduchain.so:_ZNK6Python18DeclarationBuilder11jobPriorityEv
libkdevpythonduchain.so:_ZNK6Python18DeclarationBuilder12getDocstringE5QListIPNS_3AstEE
libkdevpythonduchain.so:_ZNK6Python18DeclarationBuilder23buildModuleNameFromNodeEPNS_13ImportFromAstEPNS_8AliasAstERK7QString
libkdevpythonduchain.so:_ZNK6Python18DeclarationBuilder24findDeclarationInContextE11QStringListPN8KDevelop12TopDUContextE
libkdevpythonduchain.so:_ZNK6Python22PythonEditorIntegrator12findPositionEPKNS_3AstENS0_4EdgeE
libkdevpythonduchain.so:_ZNK6Python22PythonEditorIntegrator12parseSessionEv
libkdevpythonduchain.so:_ZNK6Python22PythonEditorIntegrator9findRangeEPKNS_3AstENS0_9RangeEdgeE
libkdevpythonduchain.so:_ZNK6Python22PythonEditorIntegrator9findRangeEPKNS_3AstES3_
libkdevpythonduchain.so:_ZNK6Python8NoneType5cloneEv
libkdevpythonduchain.so:_ZNK6Python8NoneType8toStringEv
libkdevpythonduchain.so:_ZThn488_N6Python10UseBuilder14visitAttributeEPNS_12AttributeAstE
libkdevpythonduchain.so:_ZThn488_N6Python10UseBuilder14visitSubscriptEPNS_12SubscriptAstE
libkdevpythonduchain.so:_ZThn488_N6Python10UseBuilder9visitCallEPNS_7CallAstE
libkdevpythonduchain.so:_ZThn488_N6Python10UseBuilder9visitNameEPNS_7NameAstE
libkdevpythonduchain.so:_ZThn488_N6Python14ContextBuilder11visitLambdaEPNS_9LambdaAstE
libkdevpythonduchain.so:_ZThn488_N6Python14ContextBuilder20visitClassDefinitionEPNS_18ClassDefinitionAstE
libkdevpythonduchain.so:_ZThn488_N6Python14ContextBuilder22visitListComprehensionEPNS_20ListComprehensionAstE
libkdevpythonduchain.so:_ZThn488_N6Python14ContextBuilder23visitFunctionDefinitionEPNS_21FunctionDefinitionAstE
libkdevpythonduchain.so:_ZThn488_N6Python14ContextBuilder24visitGeneratorExpressionEPNS_22GeneratorExpressionAstE
libkdevpythonduchain.so:_ZThn488_N6Python14ContextBuilder28visitDictionaryComprehensionEPNS_26DictionaryComprehensionAstE
libkdevpythonduchain.so:_ZThn488_N6Python14ContextBuilder9visitCodeEPNS_7CodeAstE
libkdevpythonduchain.so:_ZThn488_N6Python18DeclarationBuilder10visitYieldEPNS_8YieldAstE
libkdevpythonduchain.so:_ZThn488_N6Python18DeclarationBuilder11visitGlobalEPNS_9GlobalAstE
libkdevpythonduchain.so:_ZThn488_N6Python18DeclarationBuilder11visitImportEPNS_9ImportAstE
libkdevpythonduchain.so:_ZThn488_N6Python18DeclarationBuilder11visitLambdaEPNS_9LambdaAstE
libkdevpythonduchain.so:_ZThn488_N6Python18DeclarationBuilder11visitReturnEPNS_9ReturnAstE
libkdevpythonduchain.so:_ZThn488_N6Python18DeclarationBuilder11visitStringEPNS_9StringAstE
libkdevpythonduchain.so:_ZThn488_N6Python18DeclarationBuilder13visitWithItemEPNS_11WithItemAstE
libkdevpythonduchain.so:_ZThn488_N6Python18DeclarationBuilder14visitArgumentsEPNS_12ArgumentsAstE
libkdevpythonduchain.so:_ZThn488_N6Python18DeclarationBuilder14visitAssertionEPNS_12AssertionAstE
libkdevpythonduchain.so:_ZThn488_N6Python18DeclarationBuilder15visitAssignmentEPNS_13AssignmentAstE
libkdevpythonduchain.so:_ZThn488_N6Python18DeclarationBuilder15visitImportFromEPNS_13ImportFromAstE
libkdevpythonduchain.so:_ZThn488_N6Python18DeclarationBuilder18visitComprehensionEPNS_16ComprehensionAstE
libkdevpythonduchain.so:_ZThn488_N6Python18DeclarationBuilder20visitClassDefinitionEPNS_18ClassDefinitionAstE
libkdevpythonduchain.so:_ZThn488_N6Python18DeclarationBuilder21visitExceptionHandlerEPNS_19ExceptionHandlerAstE
libkdevpythonduchain.so:_ZThn488_N6Python18DeclarationBuilder23visitFunctionDefinitionEPNS_21FunctionDefinitionAstE
libkdevpythonduchain.so:_ZThn488_N6Python18DeclarationBuilder25visitAnnotationAssignmentEPNS_23AnnotationAssignmentAstE
libkdevpythonduchain.so:_ZThn488_N6Python18DeclarationBuilder7visitIfEPNS_5IfAstE
libkdevpythonduchain.so:_ZThn488_N6Python18DeclarationBuilder8visitForEPNS_6ForAstE
libkdevpythonduchain.so:_ZThn488_N6Python18DeclarationBuilder9visitCallEPNS_7CallAstE
libkdevpythonduchain.so:_ZThn488_N6Python18DeclarationBuilder9visitCodeEPNS_7CodeAstE
libkdevpythonduchain.so:_ZThn488_N6Python18DeclarationBuilder9visitNodeEPNS_3AstE
libkdevpythonduchain.so:_ZThn488_N6Python18DeclarationBuilderD0Ev
libkdevpythonduchain.so:_ZThn488_N6Python18DeclarationBuilderD1Ev
libkdevpythonduchain.so:_ZThn48_N6Python19FunctionDeclarationD0Ev
libkdevpythonduchain.so:_ZThn48_N6Python19FunctionDeclarationD1Ev
libkdevpythonduchain.so:_ZThn8_N6Python17ExpressionVisitor19encounterPreprocessEN8KDevelop7TypePtrINS1_12AbstractTypeEEE
libkdevpythonparser.so:_ZN6Python10AstBuilder5parseERK4QUrlR7QString
libkdevpythonparser.so:_ZN6Python10AstVisitor9visitNodeEPNS_3AstE
libkdevpythonparser.so:_ZN6Python10AstVisitorC1Ev
libkdevpythonparser.so:_ZN6Python10AstVisitorC2Ev
libkdevpythonparser.so:_ZN6Python10AstVisitorD0Ev
libkdevpythonparser.so:_ZN6Python10AstVisitorD1Ev
libkdevpythonparser.so:_ZN6Python10AstVisitorD2Ev
libkdevpythonparser.so:_ZN6Python10CompareAstC1EPNS_3AstE
libkdevpythonparser.so:_ZN6Python10CompareAstC2EPNS_3AstE
libkdevpythonparser.so:_ZN6Python10IdentifierC1E7QString
libkdevpythonparser.so:_ZN6Python10IdentifierC2E7QString
libkdevpythonparser.so:_ZN6Python10KeywordAstC1EPNS_3AstE
libkdevpythonparser.so:_ZN6Python10KeywordAstC2EPNS_3AstE
libkdevpythonparser.so:_ZN6Python10StarredAstC1EPNS_3AstE
libkdevpythonparser.so:_ZN6Python10StarredAstC2EPNS_3AstE
libkdevpythonparser.so:_ZN6Python11CodeHelpers10endsInsideERK7QString
libkdevpythonparser.so:_ZN6Python11CodeHelpers11killStringsE7QString
libkdevpythonparser.so:_ZN6Python11CodeHelpers17splitCodeByCursorERK7QStringN11KTextEditor5RangeENS4_6CursorE
libkdevpythonparser.so:_ZN6Python11CodeHelpers21expressionUnderCursorERNS_15LazyLineFetcherEN11KTextEditor6CursorERS4_b
libkdevpythonparser.so:_ZN6Python11CodeHelpers24extractStringUnderCursorERK7QStringN11KTextEditor5RangeENS4_6CursorEPi
libkdevpythonparser.so:_ZN6Python11CodeHelpersC1Ev
libkdevpythonparser.so:_ZN6Python11CodeHelpersC2Ev
libkdevpythonparser.so:_ZN6Python11ContinueAstC1EPNS_3AstE
libkdevpythonparser.so:_ZN6Python11ContinueAstC2EPNS_3AstE
libkdevpythonparser.so:_ZN6Python11EllipsisAstC1EPNS_3AstE
libkdevpythonparser.so:_ZN6Python11EllipsisAstC2EPNS_3AstE
libkdevpythonparser.so:_ZN6Python11NonlocalAstC1EPNS_3AstE
libkdevpythonparser.so:_ZN6Python11NonlocalAstC2EPNS_3AstE
libkdevpythonparser.so:_ZN6Python11WithItemAstC1EPNS_3AstE
libkdevpythonparser.so:_ZN6Python11WithItemAstC2EPNS_3AstE
libkdevpythonparser.so:_ZN6Python12ArgumentsAstC1EPNS_3AstE
libkdevpythonparser.so:_ZN6Python12ArgumentsAstC2EPNS_3AstE
libkdevpythonparser.so:_ZN6Python12AssertionAstC1EPNS_3AstE
libkdevpythonparser.so:_ZN6Python12AssertionAstC2EPNS_3AstE
libkdevpythonparser.so:_ZN6Python12AttributeAstC1EPNS_3AstE
libkdevpythonparser.so:_ZN6Python12AttributeAstC2EPNS_3AstE
libkdevpythonparser.so:_ZN6Python12ParseSession11setContentsERK7QString
libkdevpythonparser.so:_ZN6Python12ParseSession15currentDocumentEv
libkdevpythonparser.so:_ZN6Python12ParseSession18setCurrentDocumentERKN8KDevelop13IndexedStringE
libkdevpythonparser.so:_ZN6Python12ParseSession29setFutureModificationRevisionERKN8KDevelop20ModificationRevisionE
libkdevpythonparser.so:_ZN6Python12ParseSession5parseEv
libkdevpythonparser.so:_ZN6Python12ParseSessionC1Ev
libkdevpythonparser.so:_ZN6Python12ParseSessionC2Ev
libkdevpythonparser.so:_ZN6Python12ParseSessionD0Ev
libkdevpythonparser.so:_ZN6Python12ParseSessionD1Ev
libkdevpythonparser.so:_ZN6Python12ParseSessionD2Ev
libkdevpythonparser.so:_ZN6Python12SliceAstBaseC1EPNS_3AstENS1_7AstTypeE
libkdevpythonparser.so:_ZN6Python12SliceAstBaseC2EPNS_3AstENS1_7AstTypeE
libkdevpythonparser.so:_ZN6Python12StatementAstC1EPNS_3AstENS1_7AstTypeE
libkdevpythonparser.so:_ZN6Python12StatementAstC2EPNS_3AstENS1_7AstTypeE
libkdevpythonparser.so:_ZN6Python12SubscriptAstC1EPNS_3AstE
libkdevpythonparser.so:_ZN6Python12SubscriptAstC2EPNS_3AstE
libkdevpythonparser.so:_ZN6Python12YieldFromAstC1EPNS_3AstE
libkdevpythonparser.so:_ZN6Python12YieldFromAstC2EPNS_3AstE
libkdevpythonparser.so:_ZN6Python13AssignmentAstC1EPNS_3AstE
libkdevpythonparser.so:_ZN6Python13AssignmentAstC2EPNS_3AstE
libkdevpythonparser.so:_ZN6Python13ExpressionAstC1EPNS_3AstENS1_7AstTypeE
libkdevpythonparser.so:_ZN6Python13ExpressionAstC2EPNS_3AstENS1_7AstTypeE
libkdevpythonparser.so:_ZN6Python13ImportFromAstC1EPNS_3AstE
libkdevpythonparser.so:_ZN6Python13ImportFromAstC2EPNS_3AstE
libkdevpythonparser.so:_ZN6Python15IfExpressionAstC1EPNS_3AstE
libkdevpythonparser.so:_ZN6Python15IfExpressionAstC2EPNS_3AstE
libkdevpythonparser.so:_ZN6Python15JoinedStringAstC1EPNS_3AstE
libkdevpythonparser.so:_ZN6Python15JoinedStringAstC2EPNS_3AstE
libkdevpythonparser.so:_ZN6Python15NameConstantAstC1EPNS_3AstE
libkdevpythonparser.so:_ZN6Python15NameConstantAstC2EPNS_3AstE
libkdevpythonparser.so:_ZN6Python16ComprehensionAstC1EPNS_3AstE
libkdevpythonparser.so:_ZN6Python16ComprehensionAstC2EPNS_3AstE
libkdevpythonparser.so:_ZN6Python16ExtendedSliceAstC1EPNS_3AstE
libkdevpythonparser.so:_ZN6Python16ExtendedSliceAstC2EPNS_3AstE
libkdevpythonparser.so:_ZN6Python17AstDefaultVisitor10visitAliasEPNS_8AliasAstE
libkdevpythonparser.so:_ZN6Python17AstDefaultVisitor10visitAwaitEPNS_8AwaitAstE
libkdevpythonparser.so:_ZN6Python17AstDefaultVisitor10visitBreakEPNS_8BreakAstE
libkdevpythonparser.so:_ZN6Python17AstDefaultVisitor10visitBytesEPNS_8BytesAstE
libkdevpythonparser.so:_ZN6Python17AstDefaultVisitor10visitIndexEPNS_8IndexAstE
libkdevpythonparser.so:_ZN6Python17AstDefaultVisitor10visitRaiseEPNS_8RaiseAstE
libkdevpythonparser.so:_ZN6Python17AstDefaultVisitor10visitSliceEPNS_8SliceAstE
libkdevpythonparser.so:_ZN6Python17AstDefaultVisitor10visitTupleEPNS_8TupleAstE
libkdevpythonparser.so:_ZN6Python17AstDefaultVisitor10visitWhileEPNS_8WhileAstE
libkdevpythonparser.so:_ZN6Python17AstDefaultVisitor10visitYieldEPNS_8YieldAstE
libkdevpythonparser.so:_ZN6Python17AstDefaultVisitor11visitDeleteEPNS_9DeleteAstE
libkdevpythonparser.so:_ZN6Python17AstDefaultVisitor11visitGlobalEPNS_9GlobalAstE
libkdevpythonparser.so:_ZN6Python17AstDefaultVisitor11visitImportEPNS_9ImportAstE
libkdevpythonparser.so:_ZN6Python17AstDefaultVisitor11visitLambdaEPNS_9LambdaAstE
libkdevpythonparser.so:_ZN6Python17AstDefaultVisitor11visitNumberEPNS_9NumberAstE
libkdevpythonparser.so:_ZN6Python17AstDefaultVisitor11visitReturnEPNS_9ReturnAstE
libkdevpythonparser.so:_ZN6Python17AstDefaultVisitor11visitStringEPNS_9StringAstE
libkdevpythonparser.so:_ZN6Python17AstDefaultVisitor12visitCompareEPNS_10CompareAstE
libkdevpythonparser.so:_ZN6Python17AstDefaultVisitor12visitKeywordEPNS_10KeywordAstE
libkdevpythonparser.so:_ZN6Python17AstDefaultVisitor12visitStarredEPNS_10StarredAstE
libkdevpythonparser.so:_ZN6Python17AstDefaultVisitor13visitContinueEPNS_11ContinueAstE
libkdevpythonparser.so:_ZN6Python17AstDefaultVisitor13visitEllipsisEPNS_11EllipsisAstE
libkdevpythonparser.so:_ZN6Python17AstDefaultVisitor13visitNonlocalEPNS_11NonlocalAstE
libkdevpythonparser.so:_ZN6Python17AstDefaultVisitor13visitWithItemEPNS_11WithItemAstE
libkdevpythonparser.so:_ZN6Python17AstDefaultVisitor14visitArgumentsEPNS_12ArgumentsAstE
libkdevpythonparser.so:_ZN6Python17AstDefaultVisitor14visitAssertionEPNS_12AssertionAstE
libkdevpythonparser.so:_ZN6Python17AstDefaultVisitor14visitAttributeEPNS_12AttributeAstE
libkdevpythonparser.so:_ZN6Python17AstDefaultVisitor14visitSubscriptEPNS_12SubscriptAstE
libkdevpythonparser.so:_ZN6Python17AstDefaultVisitor14visitYieldFromEPNS_12YieldFromAstE
libkdevpythonparser.so:_ZN6Python17AstDefaultVisitor15visitAssignmentEPNS_13AssignmentAstE
libkdevpythonparser.so:_ZN6Python17AstDefaultVisitor15visitExpressionEPNS_13ExpressionAstE
libkdevpythonparser.so:_ZN6Python17AstDefaultVisitor15visitIdentifierEPNS_10IdentifierE
libkdevpythonparser.so:_ZN6Python17AstDefaultVisitor15visitImportFromEPNS_13ImportFromAstE
libkdevpythonparser.so:_ZN6Python17AstDefaultVisitor17visitIfExpressionEPNS_15IfExpressionAstE
libkdevpythonparser.so:_ZN6Python17AstDefaultVisitor17visitJoinedStringEPNS_15JoinedStringAstE
libkdevpythonparser.so:_ZN6Python17AstDefaultVisitor17visitNameConstantEPNS_15NameConstantAstE
libkdevpythonparser.so:_ZN6Python17AstDefaultVisitor18visitComprehensionEPNS_16ComprehensionAstE
libkdevpythonparser.so:_ZN6Python17AstDefaultVisitor18visitExtendedSliceEPNS_16ExtendedSliceAstE
libkdevpythonparser.so:_ZN6Python17AstDefaultVisitor19visitFormattedValueEPNS_17FormattedValueAstE
libkdevpythonparser.so:_ZN6Python17AstDefaultVisitor19visitUnaryOperationEPNS_17UnaryOperationAstE
libkdevpythonparser.so:_ZN6Python17AstDefaultVisitor20visitBinaryOperationEPNS_18BinaryOperationAstE
libkdevpythonparser.so:_ZN6Python17AstDefaultVisitor20visitClassDefinitionEPNS_18ClassDefinitionAstE
libkdevpythonparser.so:_ZN6Python17AstDefaultVisitor21visitBooleanOperationEPNS_19BooleanOperationAstE
libkdevpythonparser.so:_ZN6Python17AstDefaultVisitor21visitExceptionHandlerEPNS_19ExceptionHandlerAstE
libkdevpythonparser.so:_ZN6Python17AstDefaultVisitor21visitSetComprehensionEPNS_19SetComprehensionAstE
libkdevpythonparser.so:_ZN6Python17AstDefaultVisitor22visitListComprehensionEPNS_20ListComprehensionAstE
libkdevpythonparser.so:_ZN6Python17AstDefaultVisitor23visitFunctionDefinitionEPNS_21FunctionDefinitionAstE
libkdevpythonparser.so:_ZN6Python17AstDefaultVisitor24visitAugmentedAssignmentEPNS_22AugmentedAssignmentAstE
libkdevpythonparser.so:_ZN6Python17AstDefaultVisitor24visitGeneratorExpressionEPNS_22GeneratorExpressionAstE
libkdevpythonparser.so:_ZN6Python17AstDefaultVisitor25visitAnnotationAssignmentEPNS_23AnnotationAssignmentAstE
libkdevpythonparser.so:_ZN6Python17AstDefaultVisitor28visitDictionaryComprehensionEPNS_26DictionaryComprehensionAstE
libkdevpythonparser.so:_ZN6Python17AstDefaultVisitor7visitIfEPNS_5IfAstE
libkdevpythonparser.so:_ZN6Python17AstDefaultVisitor8visitArgEPNS_6ArgAstE
libkdevpythonparser.so:_ZN6Python17AstDefaultVisitor8visitForEPNS_6ForAstE
libkdevpythonparser.so:_ZN6Python17AstDefaultVisitor8visitSetEPNS_6SetAstE
libkdevpythonparser.so:_ZN6Python17AstDefaultVisitor8visitTryEPNS_6TryAstE
libkdevpythonparser.so:_ZN6Python17AstDefaultVisitor9visitCallEPNS_7CallAstE
libkdevpythonparser.so:_ZN6Python17AstDefaultVisitor9visitCodeEPNS_7CodeAstE
libkdevpythonparser.so:_ZN6Python17AstDefaultVisitor9visitDictEPNS_7DictAstE
libkdevpythonparser.so:_ZN6Python17AstDefaultVisitor9visitListEPNS_7ListAstE
libkdevpythonparser.so:_ZN6Python17AstDefaultVisitor9visitNameEPNS_7NameAstE
libkdevpythonparser.so:_ZN6Python17AstDefaultVisitor9visitPassEPNS_7PassAstE
libkdevpythonparser.so:_ZN6Python17AstDefaultVisitor9visitWithEPNS_7WithAstE
libkdevpythonparser.so:_ZN6Python17AstDefaultVisitorC1Ev
libkdevpythonparser.so:_ZN6Python17AstDefaultVisitorC2Ev
libkdevpythonparser.so:_ZN6Python17AstDefaultVisitorD0Ev
libkdevpythonparser.so:_ZN6Python17AstDefaultVisitorD1Ev
libkdevpythonparser.so:_ZN6Python17AstDefaultVisitorD2Ev
libkdevpythonparser.so:_ZN6Python17FormattedValueAstC1EPNS_3AstE
libkdevpythonparser.so:_ZN6Python17FormattedValueAstC2EPNS_3AstE
libkdevpythonparser.so:_ZN6Python17UnaryOperationAstC1EPNS_3AstE
libkdevpythonparser.so:_ZN6Python17UnaryOperationAstC2EPNS_3AstE
libkdevpythonparser.so:_ZN6Python18BinaryOperationAstC1EPNS_3AstE
libkdevpythonparser.so:_ZN6Python18BinaryOperationAstC2EPNS_3AstE
libkdevpythonparser.so:_ZN6Python18ClassDefinitionAstC1EPNS_3AstE
libkdevpythonparser.so:_ZN6Python18ClassDefinitionAstC2EPNS_3AstE
libkdevpythonparser.so:_ZN6Python18free_ast_recursiveEPNS_7CodeAstE
libkdevpythonparser.so:_ZN6Python19BooleanOperationAstC1EPNS_3AstE
libkdevpythonparser.so:_ZN6Python19BooleanOperationAstC2EPNS_3AstE
libkdevpythonparser.so:_ZN6Python19CythonSyntaxRemover11fixCimportsER7QString
libkdevpythonparser.so:_ZN6Python19CythonSyntaxRemover12fixAstRangesEPNS_7CodeAstE
libkdevpythonparser.so:_ZN6Python19CythonSyntaxRemover12fixCtypedefsER7QString
libkdevpythonparser.so:_ZN6Python19CythonSyntaxRemover16fixVariableTypesER7QString
libkdevpythonparser.so:_ZN6Python19CythonSyntaxRemover17stripCythonSyntaxERK7QString
libkdevpythonparser.so:_ZN6Python19CythonSyntaxRemover19fixExtensionClassesER7QString
libkdevpythonparser.so:_ZN6Python19CythonSyntaxRemover20getArgumentListTypesEv
libkdevpythonparser.so:_ZN6Python19CythonSyntaxRemover21getArgumentListTokensEv
libkdevpythonparser.so:_ZN6Python19CythonSyntaxRemover22fixFunctionDefinitionsER7QString
libkdevpythonparser.so:_ZN6Python19ExceptionHandlerAstC1EPNS_3AstE
libkdevpythonparser.so:_ZN6Python19ExceptionHandlerAstC2EPNS_3AstE
libkdevpythonparser.so:_ZN6Python19SetComprehensionAstC1EPNS_3AstE
libkdevpythonparser.so:_ZN6Python19SetComprehensionAstC2EPNS_3AstE
libkdevpythonparser.so:_ZN6Python20ListComprehensionAstC1EPNS_3AstE
libkdevpythonparser.so:_ZN6Python20ListComprehensionAstC2EPNS_3AstE
libkdevpythonparser.so:_ZN6Python21FileIndentInformation10initializeERK11QStringList
libkdevpythonparser.so:_ZN6Python21FileIndentInformationC1EPN11KTextEditor8DocumentE
libkdevpythonparser.so:_ZN6Python21FileIndentInformationC1ERK10QByteArray
libkdevpythonparser.so:_ZN6Python21FileIndentInformationC1ERK11QStringList
libkdevpythonparser.so:_ZN6Python21FileIndentInformationC1ERK7QString
libkdevpythonparser.so:_ZN6Python21FileIndentInformationC2EPN11KTextEditor8DocumentE
libkdevpythonparser.so:_ZN6Python21FileIndentInformationC2ERK10QByteArray
libkdevpythonparser.so:_ZN6Python21FileIndentInformationC2ERK11QStringList
libkdevpythonparser.so:_ZN6Python21FileIndentInformationC2ERK7QString
libkdevpythonparser.so:_ZN6Python21FunctionDefinitionAstC1EPNS_3AstE
libkdevpythonparser.so:_ZN6Python21FunctionDefinitionAstC2EPNS_3AstE
libkdevpythonparser.so:_ZN6Python22AugmentedAssignmentAstC1EPNS_3AstE
libkdevpythonparser.so:_ZN6Python22AugmentedAssignmentAstC2EPNS_3AstE
libkdevpythonparser.so:_ZN6Python22GeneratorExpressionAstC1EPNS_3AstE
libkdevpythonparser.so:_ZN6Python22GeneratorExpressionAstC2EPNS_3AstE
libkdevpythonparser.so:_ZN6Python23AnnotationAssignmentAstC1EPNS_3AstE
libkdevpythonparser.so:_ZN6Python23AnnotationAssignmentAstC2EPNS_3AstE
libkdevpythonparser.so:_ZN6Python26DictionaryComprehensionAstC1EPNS_3AstE
libkdevpythonparser.so:_ZN6Python26DictionaryComprehensionAstC2EPNS_3AstE
libkdevpythonparser.so:_ZN6Python3AstC1EPS0_NS0_7AstTypeE
libkdevpythonparser.so:_ZN6Python3AstC1Ev
libkdevpythonparser.so:_ZN6Python3AstC2EPS0_NS0_7AstTypeE
libkdevpythonparser.so:_ZN6Python3AstC2Ev
libkdevpythonparser.so:_ZN6Python5IfAstC1EPNS_3AstE
libkdevpythonparser.so:_ZN6Python5IfAstC2EPNS_3AstE
libkdevpythonparser.so:_ZN6Python6ArgAstC1EPNS_3AstE
libkdevpythonparser.so:_ZN6Python6ArgAstC2EPNS_3AstE
libkdevpythonparser.so:_ZN6Python6ForAstC1EPNS_3AstE
libkdevpythonparser.so:_ZN6Python6ForAstC2EPNS_3AstE
libkdevpythonparser.so:_ZN6Python6SetAstC1EPNS_3AstE
libkdevpythonparser.so:_ZN6Python6SetAstC2EPNS_3AstE
libkdevpythonparser.so:_ZN6Python6TryAstC1EPNS_3AstE
libkdevpythonparser.so:_ZN6Python6TryAstC2EPNS_3AstE
libkdevpythonparser.so:_ZN6Python7CallAstC1EPNS_3AstE
libkdevpythonparser.so:_ZN6Python7CallAstC2EPNS_3AstE
libkdevpythonparser.so:_ZN6Python7CodeAstC1Ev
libkdevpythonparser.so:_ZN6Python7CodeAstC2Ev
libkdevpythonparser.so:_ZN6Python7CodeAstD1Ev
libkdevpythonparser.so:_ZN6Python7CodeAstD2Ev
libkdevpythonparser.so:_ZN6Python7DictAstC1EPNS_3AstE
libkdevpythonparser.so:_ZN6Python7DictAstC2EPNS_3AstE
libkdevpythonparser.so:_ZN6Python7ListAstC1EPNS_3AstE
libkdevpythonparser.so:_ZN6Python7ListAstC2EPNS_3AstE
libkdevpythonparser.so:_ZN6Python7NameAstC1EPNS_3AstE
libkdevpythonparser.so:_ZN6Python7NameAstC2EPNS_3AstE
libkdevpythonparser.so:_ZN6Python7PassAstC1EPNS_3AstE
libkdevpythonparser.so:_ZN6Python7PassAstC2EPNS_3AstE
libkdevpythonparser.so:_ZN6Python7WithAstC1EPNS_3AstE
libkdevpythonparser.so:_ZN6Python7WithAstC2EPNS_3AstE
libkdevpythonparser.so:_ZN6Python8AliasAstC1EPNS_3AstE
libkdevpythonparser.so:_ZN6Python8AliasAstC2EPNS_3AstE
libkdevpythonparser.so:_ZN6Python8AwaitAstC1EPNS_3AstE
libkdevpythonparser.so:_ZN6Python8AwaitAstC2EPNS_3AstE
libkdevpythonparser.so:_ZN6Python8BreakAstC1EPNS_3AstE
libkdevpythonparser.so:_ZN6Python8BreakAstC2EPNS_3AstE
libkdevpythonparser.so:_ZN6Python8BytesAstC1EPNS_3AstE
libkdevpythonparser.so:_ZN6Python8BytesAstC2EPNS_3AstE
libkdevpythonparser.so:_ZN6Python8IndexAstC1EPNS_3AstE
libkdevpythonparser.so:_ZN6Python8IndexAstC2EPNS_3AstE
libkdevpythonparser.so:_ZN6Python8RaiseAstC1EPNS_3AstE
libkdevpythonparser.so:_ZN6Python8RaiseAstC2EPNS_3AstE
libkdevpythonparser.so:_ZN6Python8SliceAstC1EPNS_3AstE
libkdevpythonparser.so:_ZN6Python8SliceAstC2EPNS_3AstE
libkdevpythonparser.so:_ZN6Python8TupleAstC1EPNS_3AstE
libkdevpythonparser.so:_ZN6Python8TupleAstC2EPNS_3AstE
libkdevpythonparser.so:_ZN6Python8WhileAstC1EPNS_3AstE
libkdevpythonparser.so:_ZN6Python8WhileAstC2EPNS_3AstE
libkdevpythonparser.so:_ZN6Python8YieldAstC1EPNS_3AstE
libkdevpythonparser.so:_ZN6Python8YieldAstC2EPNS_3AstE
libkdevpythonparser.so:_ZN6Python9DeleteAstC1EPNS_3AstE
libkdevpythonparser.so:_ZN6Python9DeleteAstC2EPNS_3AstE
libkdevpythonparser.so:_ZN6Python9GlobalAstC1EPNS_3AstE
libkdevpythonparser.so:_ZN6Python9GlobalAstC2EPNS_3AstE
libkdevpythonparser.so:_ZN6Python9ImportAstC1EPNS_3AstE
libkdevpythonparser.so:_ZN6Python9ImportAstC2EPNS_3AstE
libkdevpythonparser.so:_ZN6Python9LambdaAstC1EPNS_3AstE
libkdevpythonparser.so:_ZN6Python9LambdaAstC2EPNS_3AstE
libkdevpythonparser.so:_ZN6Python9NumberAstC1EPNS_3AstE
libkdevpythonparser.so:_ZN6Python9NumberAstC2EPNS_3AstE
libkdevpythonparser.so:_ZN6Python9ReturnAstC1EPNS_3AstE
libkdevpythonparser.so:_ZN6Python9ReturnAstC2EPNS_3AstE
libkdevpythonparser.so:_ZN6Python9StringAstC1EPNS_3AstE
libkdevpythonparser.so:_ZN6Python9StringAstC2EPNS_3AstE
libkdevpythonparser.so:_ZNK6Python12ParseSession26futureModificationRevisionEv
libkdevpythonparser.so:_ZNK6Python12ParseSession8contentsEv
libkdevpythonparser.so:_ZNK6Python21FileIndentInformation10linesCountEv
libkdevpythonparser.so:_ZNK6Python21FileIndentInformation10nextChangeEiNS0_11ChangeTypesENS0_13ScanDirectionE
libkdevpythonparser.so:_ZNK6Python21FileIndentInformation13indentForLineEi
